Certificate:
    Data:
        Version: 3 (0x2)
        Serial Number: 7 (0x7)
    Signature Algorithm: sha256WithRSAEncryption
        Issuer: C=SW, ST=Zurich, L=Zurich, O=hacking team, OU=hacking team, CN=hacking team/emailAddress=myemail@yourserver.com
        Validity
            Not Before: Nov 20 15:21:07 2019 GMT
            Not After : Nov 19 15:21:07 2020 GMT
        Subject: C=CH, ST=Zurich, L=Zurich, O=IMovies, OU=CA, CN=core
        Subject Public Key Info:
            Public Key Algorithm: rsaEncryption
                Public-Key: (4096 bit)
                Modulus:
                    00:ef:9d:1f:7e:cc:c0:cc:73:73:02:7e:3d:d4:df:
                    3c:1f:09:f6:1f:5e:4d:bb:f8:f8:73:87:54:51:47:
                    ce:7d:5b:47:64:ff:73:b7:e9:09:95:bc:e1:e0:6b:
                    66:f8:16:85:ee:fa:ed:d9:62:b8:cb:80:1b:3f:46:
                    88:74:f2:33:6a:d4:59:a2:fc:64:18:f7:3b:cc:1e:
                    1b:c0:27:76:6b:c8:68:a6:bc:2b:aa:b7:e5:06:89:
                    23:91:f2:09:04:19:12:c3:37:9a:44:d4:b5:22:35:
                    4f:d2:01:1d:05:c5:97:0d:a8:5e:30:04:98:d9:4f:
                    56:b5:2f:de:ca:33:53:7f:d3:bf:44:cf:3b:d2:30:
                    e2:e9:91:1f:3c:d4:35:f7:c0:58:74:ea:4c:c3:c1:
                    2d:5b:da:d4:ff:b3:14:e1:79:96:f2:fe:10:11:3d:
                    2a:43:81:05:72:b0:08:a6:29:fe:9e:f4:e5:2d:7c:
                    59:10:32:28:b3:c9:5a:82:fd:04:3c:68:7b:a0:84:
                    73:81:71:34:85:e7:1e:ff:24:f7:c7:37:0b:59:d6:
                    68:6a:53:39:24:8e:65:17:75:b5:fb:b8:e1:96:09:
                    f8:e2:c8:f2:90:e9:7b:4e:e3:1b:aa:e0:51:5b:dd:
                    01:2f:e9:d0:61:79:16:0d:8f:26:cd:a8:c8:83:4f:
                    30:c6:d1:ac:38:a9:b0:a5:7d:9e:56:b2:28:35:f9:
                    dd:78:84:d3:52:4c:19:24:34:d3:7d:80:04:43:ea:
                    98:d2:94:18:44:46:c8:e9:ea:00:98:0e:4e:4c:6c:
                    18:62:81:51:1a:76:0c:4c:ec:2a:a1:41:80:43:5f:
                    52:76:5f:0a:1d:fd:70:26:dc:5a:bd:ad:f8:bb:b6:
                    69:68:1c:09:08:0c:44:86:f0:ad:a7:c7:05:34:ae:
                    63:9c:ed:59:9c:72:c6:06:c1:8f:8f:90:3a:66:f0:
                    6b:42:24:c3:f6:4a:a5:b0:1b:85:50:b7:a2:2a:a0:
                    a1:ae:68:b1:a0:22:e5:6b:20:5d:f4:ed:b3:44:b1:
                    45:16:e6:e4:e3:33:4f:48:cd:3b:a3:88:91:b8:e9:
                    24:d2:18:94:b8:f8:7e:d1:e8:f3:63:c4:3e:90:37:
                    37:c7:16:20:9d:33:84:12:22:63:15:7d:58:21:03:
                    d0:f1:4b:a2:4b:4e:6f:c8:2d:eb:67:ad:3a:c0:95:
                    46:b8:4d:dc:bb:c5:36:0c:42:3b:cc:27:1b:c0:08:
                    5d:4d:4a:c4:60:d7:ff:29:14:31:49:e8:5f:ba:32:
                    90:32:80:0f:a4:31:21:86:b3:9a:5d:9f:8d:f9:fd:
                    6c:cf:3f:01:48:3d:76:19:b4:5f:87:a8:93:72:a9:
                    20:0b:c3
                Exponent: 65537 (0x10001)
        X509v3 extensions:
            X509v3 Basic Constraints: 
                CA:FALSE
            Netscape Comment: 
                OpenSSL Generated Certificate
            X509v3 Subject Key Identifier: 
                D2:3D:FF:0C:32:09:70:64:8B:D7:EE:D6:A4:DF:EE:ED:89:C2:25:CD
            X509v3 Authority Key Identifier: 
                keyid:01:E6:0E:87:EB:6E:FC:B0:D2:1A:23:8D:6D:66:63:5C:57:58:26:AD

    Signature Algorithm: sha256WithRSAEncryption
         57:57:f1:ff:64:0d:17:d4:a8:9a:b2:74:28:e2:76:f3:ab:6c:
         fa:4f:af:cb:7e:4e:9a:53:34:41:b5:b1:a9:7e:ed:15:44:58:
         63:23:cd:de:f2:49:ce:91:db:11:e8:41:30:6b:c8:0d:55:8a:
         34:e9:aa:9b:2e:6a:51:af:b6:26:f3:90:f1:e7:30:e1:6e:a6:
         5c:d2:34:3f:d1:97:8b:3e:89:06:ce:32:a3:05:ab:a1:9b:3f:
         d8:b0:d5:92:af:39:a5:dd:e5:98:00:70:12:af:7c:28:29:41:
         96:78:4d:4c:8c:1a:84:f9:a2:90:5d:bd:9e:72:a9:7c:af:60:
         bf:f0:2c:34:c2:a0:dc:14:83:b4:02:a6:62:cc:6e:29:07:e3:
         6a:5b:96:35:0c:c9:06:4a:9f:56:28:4a:89:68:e6:eb:de:22:
         9a:37:df:da:63:2b:80:0d:2b:ee:cc:dd:80:26:1d:1f:b9:44:
         18:3d:9a:cf:e1:d4:0d:db:8f:20:30:64:55:4a:fd:ea:09:e3:
         b5:04:86:c0:fa:7a:ef:66:26:a4:fa:02:1c:61:0e:29:8e:3f:
         c3:2d:38:69:aa:9c:18:5c:09:c6:87:b2:1f:fb:74:ee:ba:73:
         0b:19:c5:f8:53:a4:01:dd:75:4f:88:c9:2f:c2:e4:df:13:2e:
         c3:ae:84:74
-----BEGIN CERTIFICATE-----
MIIE7zCCA9egAwIBAgIBBzANBgkqhkiG9w0BAQsFADCBmzELMAkGA1UEBhMCU1cx
DzANBgNVBAgMBlp1cmljaDEPMA0GA1UEBwwGWnVyaWNoMRUwEwYDVQQKDAxoYWNr
aW5nIHRlYW0xFTATBgNVBAsMDGhhY2tpbmcgdGVhbTEVMBMGA1UEAwwMaGFja2lu
ZyB0ZWFtMSUwIwYJKoZIhvcNAQkBFhZteWVtYWlsQHlvdXJzZXJ2ZXIuY29tMB4X
DTE5MTEyMDE1MjEwN1oXDTIwMTExOTE1MjEwN1owXTELMAkGA1UEBhMCQ0gxDzAN
BgNVBAgMBlp1cmljaDEPMA0GA1UEBwwGWnVyaWNoMRAwDgYDVQQKDAdJTW92aWVz
MQswCQYDVQQLDAJDQTENMAsGA1UEAwwEY29yZTCCAiIwDQYJKoZIhvcNAQEBBQAD
ggIPADCCAgoCggIBAO+dH37MwMxzcwJ+PdTfPB8J9h9eTbv4+HOHVFFHzn1bR2T/
c7fpCZW84eBrZvgWhe767dliuMuAGz9GiHTyM2rUWaL8ZBj3O8weG8AndmvIaKa8
K6q35QaJI5HyCQQZEsM3mkTUtSI1T9IBHQXFlw2oXjAEmNlPVrUv3sozU3/Tv0TP
O9Iw4umRHzzUNffAWHTqTMPBLVva1P+zFOF5lvL+EBE9KkOBBXKwCKYp/p705S18
WRAyKLPJWoL9BDxoe6CEc4FxNIXnHv8k98c3C1nWaGpTOSSOZRd1tfu44ZYJ+OLI
8pDpe07jG6rgUVvdAS/p0GF5Fg2PJs2oyINPMMbRrDipsKV9nlayKDX53XiE01JM
GSQ0032ABEPqmNKUGERGyOnqAJgOTkxsGGKBURp2DEzsKqFBgENfUnZfCh39cCbc
Wr2t+Lu2aWgcCQgMRIbwrafHBTSuY5ztWZxyxgbBj4+QOmbwa0Ikw/ZKpbAbhVC3
oiqgoa5osaAi5WsgXfTts0SxRRbm5OMzT0jNO6OIkbjpJNIYlLj4ftHo82PEPpA3
N8cWIJ0zhBIiYxV9WCED0PFLoktOb8gt62etOsCVRrhN3LvFNgxCO8wnG8AIXU1K
xGDX/ykUMUnoX7oykDKAD6QxIYazml2fjfn9bM8/AUg9dhm0X4eok3KpIAvDAgMB
AAGjezB5MAkGA1UdEwQCMAAwLAYJYIZIAYb4QgENBB8WHU9wZW5TU0wgR2VuZXJh
dGVkIENlcnRpZmljYXRlMB0GA1UdDgQWBBTSPf8MMglwZIvX7tak3+7ticIlzTAf
BgNVHSMEGDAWgBQB5g6H6278sNIaI41tZmNcV1gmrTANBgkqhkiG9w0BAQsFAAOC
AQEAV1fx/2QNF9SomrJ0KOJ286ts+k+vy35OmlM0QbWxqX7tFURYYyPN3vJJzpHb
EehBMGvIDVWKNOmqmy5qUa+2JvOQ8ecw4W6mXNI0P9GXiz6JBs4yowWroZs/2LDV
kq85pd3lmABwEq98KClBlnhNTIwahPmikF29nnKpfK9gv/AsNMKg3BSDtAKmYsxu
KQfjaluWNQzJBkqfVihKiWjm694imjff2mMrgA0r7szdgCYdH7lEGD2az+HUDduP
IDBkVUr96gnjtQSGwPp672YmpPoCHGEOKY4/wy04aaqcGFwJxoeyH/t07rpzCxnF
+FOkAd11T4jJL8Lk3xMuw66EdA==
-----END CERTIFICATE-----
