Certificate:
    Data:
        Version: 3 (0x2)
        Serial Number: 5 (0x5)
    Signature Algorithm: sha256WithRSAEncryption
        Issuer: C=SW, ST=Zurich, L=Zurich, O=hacking team, OU=hacking team, CN=hacking team/emailAddress=myemail@yourserver.com
        Validity
            Not Before: Nov 20 15:17:07 2019 GMT
            Not After : Nov 19 15:17:07 2020 GMT
        Subject: C=CH, ST=Zurich, L=Zurich, O=IMovies, OU=CA, CN=database
        Subject Public Key Info:
            Public Key Algorithm: rsaEncryption
                Public-Key: (4096 bit)
                Modulus:
                    00:df:ba:7b:8a:73:76:fe:c9:8e:ce:7a:08:86:04:
                    9e:1d:b7:40:db:99:37:f2:64:bd:3b:b9:c2:d5:56:
                    1a:6b:99:b1:0d:eb:ca:6f:b3:63:56:83:64:26:02:
                    f5:ff:fc:59:53:82:dd:97:3e:a9:53:d0:c9:17:22:
                    ac:8c:cf:94:8c:f6:b5:b2:f5:9b:d2:ae:bf:bd:c2:
                    10:ef:64:cb:80:7d:bc:70:e9:9e:0a:33:73:b3:86:
                    bf:11:7b:b7:90:17:ba:01:19:51:e8:78:02:01:84:
                    59:6f:ac:f1:a6:b2:3f:6d:0b:94:4d:85:3a:d8:2d:
                    67:cc:3a:23:50:bb:bf:18:ad:5b:bb:f6:fc:e5:74:
                    45:ca:6d:be:42:91:c0:22:02:37:20:08:7d:cd:ba:
                    52:7e:7a:f7:f3:db:14:9b:83:b1:31:4e:ef:14:43:
                    98:a6:4e:6b:d7:8c:ef:07:f4:4c:9b:79:6d:4c:67:
                    cb:98:d9:4a:ed:33:8f:60:29:43:0a:c4:f4:84:ad:
                    b5:e1:34:78:77:ce:80:5c:8b:e0:61:bd:c0:b7:3a:
                    ef:e8:9e:af:e8:c3:f5:f4:f9:63:da:b1:02:6f:91:
                    83:db:fc:85:2f:1b:da:a1:42:b2:c7:ae:b6:31:09:
                    2c:d6:c0:3c:76:42:42:46:10:c5:8b:3e:8d:76:e3:
                    17:b6:6a:4d:11:1b:4f:fb:20:ef:77:8c:e8:b7:5b:
                    b5:6c:8f:8c:9b:f9:d2:51:25:9e:38:de:cf:15:f3:
                    8c:a1:1b:14:1d:03:1b:2e:f1:22:b4:61:5f:30:b7:
                    bd:30:3e:a4:5e:e2:49:3d:4b:98:57:f3:b0:5b:fc:
                    36:85:d4:70:54:f4:2b:e9:a6:42:68:e1:cf:77:09:
                    06:be:76:98:e8:38:57:97:72:d1:5e:14:c2:03:ec:
                    70:f9:d7:fa:8c:0e:6e:3f:78:1e:f7:e5:ef:17:87:
                    62:75:3f:d2:dd:3e:8c:e3:b9:07:f4:9b:14:06:40:
                    4e:b7:60:58:75:0b:b7:2a:73:b4:cc:66:d1:33:09:
                    95:dc:5a:0c:b8:6c:ad:ba:8e:32:d0:b0:75:48:8c:
                    31:20:96:de:f0:a6:43:7f:38:69:de:b9:43:91:b9:
                    1e:29:f5:b1:e2:5d:11:3b:dd:1a:f4:e0:37:40:d0:
                    1f:59:26:fb:12:97:5f:fb:df:ca:ad:20:7a:7a:29:
                    84:13:72:08:46:ad:6e:a1:12:b7:a9:b9:9c:b7:d8:
                    f0:35:d4:0e:5d:5e:1e:4c:37:22:91:c8:42:9b:f2:
                    72:8f:03:e2:e9:f4:70:d8:ac:ba:8d:e2:b2:f8:38:
                    62:fb:07:1b:56:3f:ea:04:c4:18:37:95:50:50:8f:
                    49:00:ad
                Exponent: 65537 (0x10001)
        X509v3 extensions:
            X509v3 Basic Constraints: 
                CA:FALSE
            Netscape Comment: 
                OpenSSL Generated Certificate
            X509v3 Subject Key Identifier: 
                B0:79:3D:7F:AC:22:0D:58:3D:C6:0D:5D:0D:36:D6:AC:12:4D:46:32
            X509v3 Authority Key Identifier: 
                keyid:01:E6:0E:87:EB:6E:FC:B0:D2:1A:23:8D:6D:66:63:5C:57:58:26:AD

    Signature Algorithm: sha256WithRSAEncryption
         39:97:f5:e5:f3:16:2c:94:4b:60:ec:b1:f3:02:fa:81:30:e2:
         b0:3a:e3:99:7a:7f:e4:7f:cf:ed:e8:be:88:db:41:9f:aa:a0:
         3d:fb:6a:46:53:cf:01:75:fb:d1:0c:34:0c:19:f4:23:42:a4:
         9c:36:7a:75:c6:42:17:d8:e8:65:b8:42:64:04:3f:e2:00:f0:
         e3:36:d9:f0:e2:e3:7b:45:d7:19:bf:4e:cb:0a:1b:f0:ec:47:
         90:55:32:36:14:c1:c4:fb:74:b8:51:a4:de:53:44:10:e7:c9:
         37:51:b0:2b:63:f7:35:d5:3e:a9:88:e7:a6:6b:d2:a1:a8:46:
         58:55:57:d9:40:6a:2d:4f:7f:e8:f1:80:a2:4e:8c:76:ed:59:
         ae:49:b1:f1:55:c7:93:41:e1:ed:50:fa:f6:6a:db:93:d8:d4:
         a5:d3:86:95:bb:27:88:18:ea:2d:ff:75:08:d5:6f:c5:33:cb:
         e1:de:0b:36:3d:3d:1f:23:f6:e8:7d:41:68:20:71:b1:7a:ea:
         3d:3d:3b:07:81:4b:1f:96:20:1d:99:01:33:8c:65:6d:3d:70:
         82:78:1a:7e:88:8f:93:c9:4c:eb:97:77:f3:04:66:ab:10:95:
         5b:d0:d5:66:7f:af:10:db:e4:ee:ee:7d:c2:62:50:67:ed:53:
         92:ef:48:e3
-----BEGIN CERTIFICATE-----
MIIE8zCCA9ugAwIBAgIBBTANBgkqhkiG9w0BAQsFADCBmzELMAkGA1UEBhMCU1cx
DzANBgNVBAgMBlp1cmljaDEPMA0GA1UEBwwGWnVyaWNoMRUwEwYDVQQKDAxoYWNr
aW5nIHRlYW0xFTATBgNVBAsMDGhhY2tpbmcgdGVhbTEVMBMGA1UEAwwMaGFja2lu
ZyB0ZWFtMSUwIwYJKoZIhvcNAQkBFhZteWVtYWlsQHlvdXJzZXJ2ZXIuY29tMB4X
DTE5MTEyMDE1MTcwN1oXDTIwMTExOTE1MTcwN1owYTELMAkGA1UEBhMCQ0gxDzAN
BgNVBAgMBlp1cmljaDEPMA0GA1UEBwwGWnVyaWNoMRAwDgYDVQQKDAdJTW92aWVz
MQswCQYDVQQLDAJDQTERMA8GA1UEAwwIZGF0YWJhc2UwggIiMA0GCSqGSIb3DQEB
AQUAA4ICDwAwggIKAoICAQDfunuKc3b+yY7OegiGBJ4dt0DbmTfyZL07ucLVVhpr
mbEN68pvs2NWg2QmAvX//FlTgt2XPqlT0MkXIqyMz5SM9rWy9ZvSrr+9whDvZMuA
fbxw6Z4KM3Ozhr8Re7eQF7oBGVHoeAIBhFlvrPGmsj9tC5RNhTrYLWfMOiNQu78Y
rVu79vzldEXKbb5CkcAiAjcgCH3NulJ+evfz2xSbg7ExTu8UQ5imTmvXjO8H9Eyb
eW1MZ8uY2UrtM49gKUMKxPSErbXhNHh3zoBci+BhvcC3Ou/onq/ow/X0+WPasQJv
kYPb/IUvG9qhQrLHrrYxCSzWwDx2QkJGEMWLPo124xe2ak0RG0/7IO93jOi3W7Vs
j4yb+dJRJZ443s8V84yhGxQdAxsu8SK0YV8wt70wPqRe4kk9S5hX87Bb/DaF1HBU
9CvppkJo4c93CQa+dpjoOFeXctFeFMID7HD51/qMDm4/eB735e8Xh2J1P9LdPozj
uQf0mxQGQE63YFh1C7cqc7TMZtEzCZXcWgy4bK26jjLQsHVIjDEglt7wpkN/OGne
uUORuR4p9bHiXRE73Rr04DdA0B9ZJvsSl1/738qtIHp6KYQTcghGrW6hErepuZy3
2PA11A5dXh5MNyKRyEKb8nKPA+Lp9HDYrLqN4rL4OGL7BxtWP+oExBg3lVBQj0kA
rQIDAQABo3sweTAJBgNVHRMEAjAAMCwGCWCGSAGG+EIBDQQfFh1PcGVuU1NMIEdl
bmVyYXRlZCBDZXJ0aWZpY2F0ZTAdBgNVHQ4EFgQUsHk9f6wiDVg9xg1dDTbWrBJN
RjIwHwYDVR0jBBgwFoAUAeYOh+tu/LDSGiONbWZjXFdYJq0wDQYJKoZIhvcNAQEL
BQADggEBADmX9eXzFiyUS2DssfMC+oEw4rA645l6f+R/z+3ovojbQZ+qoD37akZT
zwF1+9EMNAwZ9CNCpJw2enXGQhfY6GW4QmQEP+IA8OM22fDi43tF1xm/TssKG/Ds
R5BVMjYUwcT7dLhRpN5TRBDnyTdRsCtj9zXVPqmI56Zr0qGoRlhVV9lAai1Pf+jx
gKJOjHbtWa5JsfFVx5NB4e1Q+vZq25PY1KXThpW7J4gY6i3/dQjVb8Uzy+HeCzY9
PR8j9uh9QWggcbF66j09OweBSx+WIB2ZATOMZW09cIJ4Gn6Ij5PJTOuXd/MEZqsQ
lVvQ1WZ/rxDb5O7ufcJiUGftU5LvSOM=
-----END CERTIFICATE-----
