Certificate:
    Data:
        Version: 3 (0x2)
        Serial Number: 6 (0x6)
    Signature Algorithm: sha256WithRSAEncryption
        Issuer: C=SW, ST=Zurich, L=Zurich, O=hacking team, OU=hacking team, CN=hacking team/emailAddress=myemail@yourserver.com
        Validity
            Not Before: Nov 20 15:19:42 2019 GMT
            Not After : Nov 19 15:19:42 2020 GMT
        Subject: C=CH, ST=Zurich, L=Zurich, O=IMovies, OU=CA, CN=webserver
        Subject Public Key Info:
            Public Key Algorithm: rsaEncryption
                Public-Key: (4096 bit)
                Modulus:
                    00:f8:ad:45:c9:ed:b6:be:34:ba:fe:3f:d5:49:d2:
                    24:90:d2:09:1c:7a:fe:e8:c2:d1:fa:50:bb:4f:f4:
                    ee:b4:61:db:8e:15:f0:e5:d0:84:80:d7:ce:93:9f:
                    cf:b4:8b:db:95:da:37:c1:b9:f8:4b:1a:5e:12:08:
                    8e:46:ab:69:1d:9a:63:85:41:9c:f0:ab:62:d6:73:
                    e9:7a:53:04:1c:1c:96:ec:64:91:8d:be:7a:af:53:
                    f5:05:28:8e:16:7c:32:7b:d8:72:fd:40:49:8e:a0:
                    d4:0a:85:87:54:37:8f:3c:f3:80:5b:42:5b:1c:de:
                    db:38:32:4e:c1:5f:a8:ff:3b:a3:37:ba:f1:3a:e5:
                    01:5b:3b:8a:6b:d4:aa:71:63:07:ff:4d:50:f3:39:
                    fb:05:1c:06:d6:dc:e4:fe:9a:d5:52:9d:6b:fc:4a:
                    ad:05:64:9c:6e:ef:07:87:f8:a2:00:22:41:5d:e2:
                    5e:15:f4:f6:2e:6f:98:f6:24:27:91:4c:bb:ad:83:
                    1f:13:8c:09:0f:52:d9:85:eb:d9:7a:89:bd:1a:67:
                    8c:23:06:d3:64:66:0d:c7:27:d2:04:9f:e6:53:21:
                    28:03:f3:be:43:d8:35:2f:18:55:07:0a:67:10:a9:
                    78:67:a8:82:a2:7d:29:c7:ce:cd:4f:5f:3e:44:ae:
                    5d:a9:ed:b9:16:fd:8a:b2:ef:0a:6e:26:5a:43:17:
                    c8:bc:c5:db:25:03:89:88:80:c2:70:cc:21:7e:3b:
                    38:09:85:60:00:d1:f6:fc:fc:0b:74:53:3a:60:39:
                    65:0a:37:14:f9:5f:f3:78:72:ae:8b:e9:88:b8:ae:
                    e2:39:bd:be:23:3f:40:ba:fd:30:12:b7:97:20:d8:
                    e2:58:63:59:37:08:79:27:05:a0:ef:73:5c:43:46:
                    88:62:7c:35:e6:72:01:12:93:c9:e5:f9:39:25:28:
                    ce:64:af:3d:4f:3f:09:a0:ca:c6:38:32:3a:ad:b7:
                    45:20:5f:a7:98:c0:47:f2:ca:02:40:ec:95:66:cf:
                    51:3d:93:1c:a1:c5:34:9b:d0:86:f0:e2:77:13:d3:
                    3c:de:f9:c1:d0:ab:5e:d1:ee:b3:ee:a0:59:ff:68:
                    75:d8:fd:ca:e0:6e:e4:ea:4d:e1:ce:97:14:ea:43:
                    ce:07:1f:82:77:f0:c8:27:77:71:e1:9f:ef:26:7b:
                    3c:1a:e1:dd:d8:58:45:9c:b6:b5:eb:08:7d:22:24:
                    83:db:c1:5a:ea:01:96:88:0b:fb:f3:d2:a4:1e:b3:
                    7b:e1:84:d4:88:38:76:7a:de:5e:e9:55:83:75:f5:
                    7a:ac:be:19:9e:05:e5:0f:94:d4:fd:d8:ff:0c:63:
                    93:93:9b
                Exponent: 65537 (0x10001)
        X509v3 extensions:
            X509v3 Basic Constraints: 
                CA:FALSE
            Netscape Comment: 
                OpenSSL Generated Certificate
            X509v3 Subject Key Identifier: 
                34:8C:51:B0:55:AA:D2:FA:4F:81:09:E0:FF:52:16:38:1A:4F:D4:97
            X509v3 Authority Key Identifier: 
                keyid:01:E6:0E:87:EB:6E:FC:B0:D2:1A:23:8D:6D:66:63:5C:57:58:26:AD

    Signature Algorithm: sha256WithRSAEncryption
         6a:8e:e8:42:80:8b:3a:da:79:48:10:ab:80:3f:2a:52:37:a3:
         4e:bf:cb:b0:55:9c:06:50:00:f2:88:35:75:91:f0:4a:18:0a:
         1e:91:8e:ac:f9:12:4d:66:24:5e:cf:29:80:dd:aa:5f:d7:42:
         4a:f2:ac:d4:87:22:3b:41:e2:40:3a:b5:d6:f1:35:9d:c9:62:
         81:9b:b7:f0:53:e8:bf:b7:2f:48:6a:f0:0a:32:45:4d:05:d6:
         4a:4e:a4:20:b2:5a:16:8e:6f:a7:56:c9:33:d9:e7:3c:28:f7:
         38:b0:12:36:8a:7e:f9:de:45:da:e4:79:f9:80:6a:42:da:18:
         f1:ba:2c:79:87:65:ec:3e:c4:2a:d9:53:9f:06:2d:06:d9:26:
         6d:f2:1d:10:48:db:a4:7c:ad:40:5b:e6:56:16:68:63:ff:cc:
         35:c3:f7:e8:4f:e9:8f:eb:71:77:d7:97:15:c1:20:4b:1e:ec:
         b5:8c:b2:a8:ee:8a:81:65:d6:dc:89:69:4f:e1:1e:89:dd:00:
         6a:d2:05:01:e6:ec:bd:8d:9c:a9:86:1a:b9:0f:2e:30:61:d0:
         84:c5:63:0e:52:49:48:7b:9d:e0:83:15:a0:90:f6:5d:2c:a3:
         5b:72:e1:67:59:b4:57:3b:c8:f4:8c:08:0d:e7:84:3b:3e:5c:
         ee:64:a0:14
-----BEGIN CERTIFICATE-----
MIIE9DCCA9ygAwIBAgIBBjANBgkqhkiG9w0BAQsFADCBmzELMAkGA1UEBhMCU1cx
DzANBgNVBAgMBlp1cmljaDEPMA0GA1UEBwwGWnVyaWNoMRUwEwYDVQQKDAxoYWNr
aW5nIHRlYW0xFTATBgNVBAsMDGhhY2tpbmcgdGVhbTEVMBMGA1UEAwwMaGFja2lu
ZyB0ZWFtMSUwIwYJKoZIhvcNAQkBFhZteWVtYWlsQHlvdXJzZXJ2ZXIuY29tMB4X
DTE5MTEyMDE1MTk0MloXDTIwMTExOTE1MTk0MlowYjELMAkGA1UEBhMCQ0gxDzAN
BgNVBAgMBlp1cmljaDEPMA0GA1UEBwwGWnVyaWNoMRAwDgYDVQQKDAdJTW92aWVz
MQswCQYDVQQLDAJDQTESMBAGA1UEAwwJd2Vic2VydmVyMIICIjANBgkqhkiG9w0B
AQEFAAOCAg8AMIICCgKCAgEA+K1Fye22vjS6/j/VSdIkkNIJHHr+6MLR+lC7T/Tu
tGHbjhXw5dCEgNfOk5/PtIvbldo3wbn4SxpeEgiORqtpHZpjhUGc8Kti1nPpelME
HByW7GSRjb56r1P1BSiOFnwye9hy/UBJjqDUCoWHVDePPPOAW0JbHN7bODJOwV+o
/zujN7rxOuUBWzuKa9SqcWMH/01Q8zn7BRwG1tzk/prVUp1r/EqtBWScbu8Hh/ii
ACJBXeJeFfT2Lm+Y9iQnkUy7rYMfE4wJD1LZhevZeom9GmeMIwbTZGYNxyfSBJ/m
UyEoA/O+Q9g1LxhVBwpnEKl4Z6iCon0px87NT18+RK5dqe25Fv2Ksu8KbiZaQxfI
vMXbJQOJiIDCcMwhfjs4CYVgANH2/PwLdFM6YDllCjcU+V/zeHKui+mIuK7iOb2+
Iz9Auv0wEreXINjiWGNZNwh5JwWg73NcQ0aIYnw15nIBEpPJ5fk5JSjOZK89Tz8J
oMrGODI6rbdFIF+nmMBH8soCQOyVZs9RPZMcocU0m9CG8OJ3E9M83vnB0Kte0e6z
7qBZ/2h12P3K4G7k6k3hzpcU6kPOBx+Cd/DIJ3dx4Z/vJns8GuHd2FhFnLa16wh9
IiSD28Fa6gGWiAv789KkHrN74YTUiDh2et5e6VWDdfV6rL4ZngXlD5TU/dj/DGOT
k5sCAwEAAaN7MHkwCQYDVR0TBAIwADAsBglghkgBhvhCAQ0EHxYdT3BlblNTTCBH
ZW5lcmF0ZWQgQ2VydGlmaWNhdGUwHQYDVR0OBBYEFDSMUbBVqtL6T4EJ4P9SFjga
T9SXMB8GA1UdIwQYMBaAFAHmDofrbvyw0hojjW1mY1xXWCatMA0GCSqGSIb3DQEB
CwUAA4IBAQBqjuhCgIs62nlIEKuAPypSN6NOv8uwVZwGUADyiDV1kfBKGAoekY6s
+RJNZiRezymA3apf10JK8qzUhyI7QeJAOrXW8TWdyWKBm7fwU+i/ty9IavAKMkVN
BdZKTqQgsloWjm+nVskz2ec8KPc4sBI2in753kXa5Hn5gGpC2hjxuix5h2XsPsQq
2VOfBi0G2SZt8h0QSNukfK1AW+ZWFmhj/8w1w/foT+mP63F315cVwSBLHuy1jLKo
7oqBZdbciWlP4R6J3QBq0gUB5uy9jZyphhq5Dy4wYdCExWMOUklIe53ggxWgkPZd
LKNbcuFnWbRXO8j0jAgN54Q7PlzuZKAU
-----END CERTIFICATE-----
